(lp0
F132.875
aF1.5625
aF-177.625
aI3
aI0
aI0
aI42
aF-3.25
aF-15.25
aF30.25
aF-0.20000000298023224
aF0.25111111998558044
aF0.017777778208255768
aF0.2199999988079071
aF0.6399999856948853
aF-9.470000267028809
aF0.0
aF0.12999999523162842
aF0.3499999940395355
aF0.2800000011920929
aF0.4399999976158142
aF-9.789999961853027
a.(lp0
F133.25
aF1.5625
aF-177.25
aI3
aI0
aI0
aI42
aF-3.25
aF-15.25
aF30.25
aF-0.02222222276031971
aF-0.26777777075767517
aF0.38999998569488525
aF0.41999998688697815
aF0.6200000047683716
aF-9.130000114440918
aF0.23999999463558197
aF0.1599999964237213
aF0.6499999761581421
aF0.09000000357627869
aF0.41999998688697815
aF-9.789999961853027
a.(lp0
F133.375
aF0.5
aF-177.4375
aI3
aI0
aI0
aI42
aF-4.0
aF-14.375
aF29.25
aF0.3122222125530243
aF-0.7388888597488403
aF-0.07000000029802322
aF0.019999999552965164
aF0.5199999809265137
aF-10.319999694824219
aF0.07999999821186066
aF0.15000000596046448
aF-0.5199999809265137
aF-0.09000000357627869
aF0.3499999940395355
aF-9.789999961853027
a.(lp0
F133.25
aF-0.625
aF-177.9375
aI3
aI0
aI0
aI42
aF-3.875
aF-16.6875
aF29.6875
aF0.3888888955116272
aF-0.1322222203016281
aF0.011111111380159855
aF0.5099999904632568
aF0.7400000095367432
aF-11.0
aF0.23000000417232513
aF-0.12999999523162842
aF-0.5600000023841858
aF-0.14000000059604645
aF0.30000001192092896
aF-9.800000190734863
a.(lp0
F133.125
aF-0.875
aF-178.125
aI3
aI0
aI0
aI42
aF-3.875
aF-16.6875
aF29.6875
aF0.07333333045244217
aF-0.06333333253860474
aF-0.1966666728258133
aF-0.05999999865889549
aF0.44999998807907104
aF-9.710000038146973
aF0.07999999821186066
aF0.14000000059604645
aF0.07999999821186066
aF-0.15000000596046448
aF0.30000001192092896
aF-9.800000190734863
a.(lp0
F133.0
aF-0.9375
aF-178.1875
aI3
aI0
aI0
aI42
aF-2.375
aF-13.6875
aF30.5
aF-0.07888888567686081
aF-0.035555556416511536
aF0.15000000596046448
aF-0.5899999737739563
aF0.4300000071525574
aF-9.770000457763672
aF0.2800000011920929
aF-0.009999999776482582
aF0.15000000596046448
aF-0.1599999964237213
aF0.3100000023841858
aF-9.800000190734863
a.(lp0
F133.1875
aF-0.9375
aF-178.0625
aI3
aI0
aI0
aI42
aF-0.875
aF-14.75
aF30.25
aF-0.0833333358168602
aF-0.023333333432674408
aF0.023333333432674408
aF-0.2199999988079071
aF0.33000001311302185
aF-9.880000114440918
aF-0.07000000029802322
aF-0.009999999776482582
aF-0.07999999821186066
aF-0.10999999940395355
aF0.3700000047683716
aF-9.789999961853027
a.(lp0
F133.3125
aF-0.3125
aF-177.625
aI3
aI0
aI0
aI42
aF-0.875
aF-14.75
aF30.25
aF-0.40666666626930237
aF0.8388888835906982
aF0.20777778327465057
aF0.2199999988079071
aF0.550000011920929
aF-9.5
aF0.11999999731779099
aF0.07999999821186066
aF0.2800000011920929
aF0.10000000149011612
aF0.4699999988079071
aF-9.789999961853027
a.(lp0
F133.5625
aF0.9375
aF-177.0625
aI3
aI0
aI0
aI42
aF-2.0
aF-14.75
aF31.0
aF-0.22333332896232605
aF0.6911110877990723
aF0.035555556416511536
aF0.44999998807907104
aF0.6100000143051147
aF-9.829999923706055
aF0.15000000596046448
aF0.07000000029802322
aF-0.03999999910593033
aF0.28999999165534973
aF0.5299999713897705
aF-9.779999732971191
a.(lp0
F133.625
aF2.0
aF-176.75
aI3
aI0
aI0
aI42
aF-2.75
aF-15.1875
aF31.5
aF-0.1711111068725586
aF0.2711111009120941
aF0.11555555462837219
aF0.9599999785423279
aF0.550000011920929
aF-8.529999732971191
aF0.6299999952316284
aF0.0
aF1.25
aF0.33000001311302185
aF0.5600000023841858
aF-9.779999732971191
a.(lp0
F133.625
aF1.1875
aF-177.0
aI3
aI0
aI0
aI42
aF-2.75
aF-15.1875
aF31.5
aF0.8844444155693054
aF-1.8577778339385986
aF-0.3655555546283722
aF-0.20000000298023224
aF0.6299999952316284
aF-9.300000190734863
aF1.0399999618530273
aF1.1200000047683716
aF-3.490000009536743
aF-0.12999999523162842
aF0.33000001311302185
aF-9.789999961853027
a.(lp0
F128.9375
aF-7.4375
aF-176.1875
aI3
aI0
aI0
aI42
aF5.25
aF-17.0
aF32.0625
aF0.17777778208255768
aF1.3300000429153442
aF0.46000000834465027
aF-1.149999976158142
aF2.130000114440918
aF-12.539999961853027
aF-0.1599999964237213
aF1.5099999904632568
aF-2.799999952316284
aF-0.9900000095367432
aF0.6100000143051147
aF-9.729999542236328
a.(lp0
F129.875
aF-4.75
aF-176.4375
aI3
aI0
aI0
aI42
aF5.25
aF-17.0
aF32.0625
aF0.3955555558204651
aF1.9311110973358154
aF0.7522222399711609
aF-1.1200000047683716
aF0.4699999988079071
aF-6.460000038146973
aF-0.6700000166893005
aF-0.03999999910593033
aF3.309999942779541
aF-0.2800000011920929
aF0.47999998927116394
aF-9.789999961853027
a.(lp0
F128.375
aF-0.1875
aF-179.8125
aI3
aI0
aI0
aI42
aF1.875
aF-14.75
aF36.5
aF-0.3822222352027893
aF-0.05999999865889549
aF-0.05999999865889549
aF-2.890000104904175
aF-0.33000001311302185
aF-10.119999885559082
aF-2.8299999237060547
aF-0.4699999988079071
aF-0.3199999928474426
aF-0.05000000074505806
aF0.12999999523162842
aF-9.800000190734863
a.(lp0
F128.25
aF-0.375
aF-179.0
aI3
aI0
aI0
aI42
aF1.875
aF-14.75
aF36.5
aF-0.2633333206176758
aF-0.006666666828095913
aF-0.03777777776122093
aF-2.3499999046325684
aF-1.3200000524520874
aF-10.359999656677246
aF-2.299999952316284
aF-1.5099999904632568
aF-0.550000011920929
aF-0.019999999552965164
aF0.17000000178813934
aF-9.800000190734863
a.(lp0
F128.375
aF0.0625
aF-179.1875
aI3
aI0
aI0
aI42
aF0.75
aF-16.5625
aF34.75
aF0.5811111330986023
aF0.5777778029441833
aF0.11666666716337204
aF-1.2899999618530273
aF-1.7000000476837158
aF-9.130000114440918
aF-0.8100000023841858
aF-0.6800000071525574
aF2.140000104904175
aF0.12999999523162842
aF0.009999999776482582
aF-9.800000190734863
a.(lp0
F128.5
aF1.0
aF179.6875
aI3
aI0
aI0
aI42
aF1.5
aF-16.5625
aF35.5625
aF0.6455555558204651
aF0.2866666615009308
aF-0.013333333656191826
aF0.20000000298023224
aF0.4099999964237213
aF-7.289999961853027
aF0.0
aF0.5600000023841858
aF2.5
aF0.20000000298023224
aF-0.15000000596046448
aF-9.800000190734863
a.(lp0
F128.375
aF1.0625
aF179.0
aI3
aI0
aI0
aI42
aF1.5
aF-16.5625
aF35.5625
aF-0.10111111402511597
aF-0.4399999976158142
aF-0.29555556178092957
aF1.5800000429153442
aF-0.11999999731779099
aF-9.510000228881836
aF1.4800000190734863
aF0.0
aF0.28999999165534973
aF0.029999999329447746
aF-0.07999999821186066
aF-9.800000190734863
a.(lp0
F127.5
aF-0.125
aF179.6875
aI3
aI0
aI0
aI42
aF-0.375
aF-14.0625
aF35.1875
aF-0.4333333373069763
aF-0.5622222423553467
aF-0.42444443702697754
aF1.5399999618530273
aF0.14000000059604645
aF-11.1899995803833
aF1.659999966621399
aF0.10999999940395355
aF-1.3799999952316284
aF-0.11999999731779099
aF0.019999999552965164
aF-9.800000190734863
a.(lp0
F126.8125
aF-0.875
aF-179.625
aI3
aI0
aI0
aI42
aF1.0625
aF-15.5
aF35.6875
aF-0.2844444513320923
aF-0.2644444406032562
aF-0.30666667222976685
aF0.4099999964237213
aF1.2000000476837158
aF-10.739999771118164
aF0.6100000143051147
aF1.090000033378601
aF-0.9300000071525574
aF-0.1899999976158142
aF0.10000000149011612
aF-9.800000190734863
a.(lp0
F126.375
aF-1.25
aF-179.0625
aI3
aI0
aI0
aI42
aF1.0625
aF-15.5
aF35.6875
aF-0.2800000011920929
aF-0.03999999910593033
aF-0.09888888895511627
aF-0.10999999940395355
aF0.7200000286102295
aF-10.949999809265137
aF0.11999999731779099
aF0.5099999904632568
aF-1.1399999856948853
aF-0.2199999988079071
aF0.2199999988079071
aF-9.800000190734863
a.(lp0
F126.1875
aF-1.25
aF-178.5625
aI3
aI0
aI0
aI42
aF3.0
aF-15.0625
aF34.5
aF-0.07000000029802322
aF0.22333332896232605
aF0.031111111864447594
aF-0.47999998927116394
aF0.11999999731779099
aF-10.539999961853027
aF-0.41999998688697815
aF-0.2800000011920929
aF-0.4300000071525574
aF-0.1599999964237213
aF0.23999999463558197
aF-9.800000190734863
a.(lp0
F126.3125
aF-0.75
aF-178.5625
aI3
aI0
aI0
aI42
aF3.375
aF-16.0
aF37.0
aF0.2011111080646515
aF0.4122222363948822
aF0.1388888955116272
aF-0.75
aF-0.36000001430511475
aF-8.9399995803833
aF-0.699999988079071
aF-0.5600000023841858
aF0.8500000238418579
aF-0.05000000074505806
aF0.1899999976158142
aF-9.800000190734863
a.(lp0
F126.5625
aF-0.0625
aF-179.0
aI3
aI0
aI1
aI42
aF3.375
aF-16.0
aF37.0
aF0.2711111009120941
aF0.28999999165534973
aF0.12222222238779068
aF-0.800000011920929
aF0.11999999731779099
aF-8.15999984741211
aF-0.8500000238418579
aF0.009999999776482582
aF1.6399999856948853
aF0.05999999865889549
aF0.07999999821186066
aF-9.800000190734863
a.(lp0
F126.75
aF0.375
aF-179.5
aI3
aI0
aI1
aI42
aF0.75
aF-15.5
aF35.75
aF0.01666666753590107
aF0.05111110955476761
aF-0.01666666753590107
aF-0.07999999821186066
aF-0.5400000214576721
aF-8.710000038146973
aF-0.18000000715255737
aF-0.6299999952316284
aF1.1699999570846558
aF0.07000000029802322
aF0.07999999821186066
aF-9.800000190734863
a.(lp0
F126.625
aF0.375
aF-179.5
aI3
aI0
aI1
aI42
aF1.0625
aF-15.375
aF36.1875
aF-0.08666666597127914
aF-0.2522222101688385
aF-0.1944444477558136
aF-0.550000011920929
aF0.3100000023841858
aF-9.010000228881836
aF-0.5799999833106995
aF0.20999999344348907
aF0.7900000214576721
aF0.0
aF0.10000000149011612
aF-9.800000190734863
a.(lp0
F126.25
aF-0.1875
aF-179.25
aI3
aI0
aI1
aI42
aF1.5
aF-14.6875
aF35.6875
aF-0.23111110925674438
aF-0.48444443941116333
aF-0.20333333313465118
aF-0.25999999046325684
aF0.9399999976158142
aF-10.630000114440918
aF-0.12999999523162842
aF0.7599999904632568
aF-0.8199999928474426
aF-0.12999999523162842
aF0.17000000178813934
aF-9.800000190734863
a.(lp0
F125.9375
aF-1.0
aF-178.75
aI3
aI0
aI1
aI42
aF1.5
aF-14.6875
aF35.6875
aF-0.3233333230018616
aF-0.36000001430511475
aF-0.16111111640930176
aF0.11999999731779099
aF0.23999999463558197
aF-11.079999923706055
aF0.3499999940395355
aF0.0
aF-1.2799999713897705
aF-0.23000000417232513
aF0.25
aF-9.800000190734863
a.(lp0
F125.8125
aF-1.25
aF-178.5625
aI3
aI0
aI1
aI42
aF3.0
aF-15.375
aF34.75
aF0.27444443106651306
aF0.27444443106651306
aF0.1344444453716278
aF-0.3400000035762787
aF0.5099999904632568
aF-10.470000267028809
aF-0.25999999046325684
aF0.20000000298023224
aF-0.28999999165534973
aF-0.1599999964237213
aF0.18000000715255737
aF-9.800000190734863
a.(lp0
F126.0625
aF-0.6875
aF-179.0
aI3
aI0
aI1
aI42
aF2.25
aF-15.5
aF34.875
aF0.27000001072883606
aF0.347777783870697
aF0.14888888597488403
aF-0.47999998927116394
aF-0.4099999964237213
aF-8.770000457763672
aF-0.4099999964237213
aF-0.5199999809265137
aF1.0299999713897705
aF-0.05999999865889549
aF0.10000000149011612
aF-9.800000190734863
a.(lp0
F126.25
aF-0.25
aF-179.5
aI3
aI0
aI1
aI42
aF2.25
aF-15.5
aF34.875
aF0.30666667222976685
aF0.12777778506278992
aF-0.006666666828095913
aF-0.4300000071525574
aF-0.029999999329447746
aF-9.100000381469727
aF-0.4000000059604645
aF-0.05999999865889549
aF0.6899999976158142
aF-0.03999999910593033
aF0.019999999552965164
aF-9.800000190734863
a.(lp0
F125.9375
aF-0.3125
aF-179.75
aI3
aI0
aI1
aI42
aF2.0
aF-15.5
aF35.6875
aF-0.2777777910232544
aF-0.23666666448116302
aF-0.23444443941116333
aF-0.18000000715255737
aF0.15000000596046448
aF-9.760000228881836
aF-0.009999999776482582
aF-0.009999999776482582
aF0.019999999552965164
aF-0.10000000149011612
aF0.09000000357627869
aF-9.800000190734863
a.(lp0
F125.625
aF-0.6875
aF-179.3125
aI3
aI0
aI1
aI42
aF2.0
aF-15.0625
aF35.25
aF-0.06111111119389534
aF-0.12666666507720947
aF-0.07777778059244156
aF0.009999999776482582
aF-0.4000000059604645
aF-9.880000114440918
aF0.15000000596046448
aF-0.5099999904632568
aF-0.07999999821186066
aF-0.14000000059604645
aF0.10000000149011612
aF-9.800000190734863
a.(lp0
F125.5625
aF-0.8125
aF-179.375
aI3
aI0
aI1
aI42
aF2.0
aF-15.0625
aF35.25
aF0.12888889014720917
aF-0.04777777940034866
aF-0.07333333045244217
aF-0.18000000715255737
aF-0.10999999940395355
aF-9.899999618530273
aF-0.019999999552965164
aF-0.18000000715255737
aF-0.09000000357627869
aF-0.1599999964237213
aF0.07000000029802322
aF-9.800000190734863
a.(lp0
F125.25
aF-1.0
aF-179.5625
aI3
aI0
aI1
aI42
aF2.6875
aF-15.875
aF36.0625
aF-0.046666666865348816
aF-0.07888888567686081
aF-0.185555562376976
aF0.1599999964237213
aF-0.3199999928474426
aF-10.279999732971191
aF0.14000000059604645
aF-0.44999998807907104
aF-0.23999999463558197
aF-0.18000000715255737
aF0.07000000029802322
aF-9.800000190734863
a.(lp0
F125.0
aF-1.0
aF-179.5
aI3
aI0
aI1
aI42
aF2.25
aF-15.5
aF34.875
aF0.05000000074505806
aF0.07222222536802292
aF-0.08777777850627899
aF0.019999999552965164
aF-0.3700000047683716
aF-9.529999732971191
aF0.18000000715255737
aF-0.4300000071525574
aF0.25999999046325684
aF-0.15000000596046448
aF0.05000000074505806
aF-9.800000190734863
a.(lp0
F124.75
aF-0.8125
aF-179.625
aI3
aI0
aI1
aI42
aF3.0625
aF-15.5
aF35.25
aF-0.31888890266418457
aF0.02222222276031971
aF-0.09222222119569778
aF0.05000000074505806
aF0.4300000071525574
aF-9.449999809265137
aF-0.4300000071525574
aF0.550000011920929
aF0.8600000143051147
aF-0.14000000059604645
aF0.17000000178813934
aF-9.800000190734863
a.(lp0
F124.75
aF-0.8125
aF-178.75
aI3
aI0
aI1
aI42
aF2.5625
aF-14.75
aF36.5625
aF-0.7744444608688354
aF-0.18333333730697632
aF0.9055555462837219
aF-2.8499999046325684
aF6.289999961853027
aF-8.760000228881836
aF-2.6600000858306885
aF5.849999904632568
aF1.0199999809265137
aF-0.23000000417232513
aF0.5699999928474426
aF-9.779999732971191
a.(lp0
F177.125
aF3.375
aF-179.375
aI3
aI0
aI3
aI42
aF-1.875
aF-21.6875
aF36.5
aF0.10333333164453506
aF-0.0011111111380159855
aF0.01666666753590107
aF0.15000000596046448
aF0.3799999952316284
aF-9.510000228881836
aF-0.41999998688697815
aF0.30000001192092896
aF0.27000001072883606
aF0.5699999928474426
aF0.07000000029802322
aF-9.779999732971191
a.(lp0
F177.25
aF3.375
aF-179.625
aI3
aI0
aI3
aI42
aF-1.875
aF-21.6875
aF36.5
aF0.0
aF0.09444444626569748
aF-0.036666665226221085
aF3.799999952316284
aF1.2200000286102295
aF-13.3100004196167
aF4.960000038146973
aF1.5
aF-6.070000171661377
aF0.6600000262260437
aF0.11999999731779099
aF-9.779999732971191
a.