(lp0
F119.6875
aF-1.125
aF-177.875
aI3
aI0
aI0
aI42
aF-1.75
aF-18.6875
aF39.875
aF-0.0055555556900799274
aF-0.0011111111380159855
aF0.0
aF-0.20000000298023224
aF0.38999998569488525
aF-9.65999984741211
aF0.0
aF0.05000000074505806
aF0.029999999329447746
aF-0.20000000298023224
aF0.3499999940395355
aF-9.789999961853027
a.(lp0
F119.6875
aF-1.125
aF-177.875
aI3
aI0
aI0
aI42
aF-1.75
aF-18.6875
aF39.875
aF-0.002222222276031971
aF0.0033333334140479565
aF0.0
aF-0.20000000298023224
aF0.38999998569488525
aF-9.649999618530273
aF0.0
aF0.029999999329447746
aF0.14000000059604645
aF-0.20000000298023224
aF0.3499999940395355
aF-9.789999961853027
a.(lp0
F119.6875
aF-1.125
aF-177.875
aI3
aI0
aI0
aI42
aF-2.5625
aF-17.5625
aF37.375
aF0.0
aF-0.0011111111380159855
aF-0.0011111111380159855
aF-0.17000000178813934
aF0.3499999940395355
aF-9.729999542236328
aF0.009999999776482582
aF0.0
aF0.09000000357627869
aF-0.20000000298023224
aF0.3499999940395355
aF-9.789999961853027
a.(lp0
F119.6875
aF-1.125
aF-177.875
aI3
aI0
aI0
aI42
aF-2.875
aF-17.1875
aF39.0
aF0.002222222276031971
aF0.0033333334140479565
aF0.0011111111380159855
aF-0.18000000715255737
aF0.3199999928474426
aF-9.720000267028809
aF0.009999999776482582
aF-0.019999999552965164
aF0.07000000029802322
aF-0.20000000298023224
aF0.3499999940395355
aF-9.789999961853027
a.(lp0
F119.6875
aF-1.125
aF-177.875
aI3
aI0
aI0
aI42
aF-2.875
aF-17.1875
aF39.0
aF-0.0011111111380159855
aF-0.004444444552063942
aF0.0
aF-0.2199999988079071
aF0.23999999463558197
aF-9.680000305175781
aF-0.009999999776482582
aF-0.10000000149011612
aF0.10999999940395355
aF-0.20000000298023224
aF0.3499999940395355
aF-9.789999961853027
a.(lp0
F119.6875
aF-1.125
aF-177.875
aI3
aI0
aI0
aI42
aF-2.875
aF-18.25
aF37.75
aF-0.0011111111380159855
aF0.0011111111380159855
aF-0.002222222276031971
aF-0.23999999463558197
aF0.33000001311302185
aF-9.760000228881836
aF-0.03999999910593033
aF-0.009999999776482582
aF0.029999999329447746
aF-0.20000000298023224
aF0.3499999940395355
aF-9.789999961853027
a.(lp0
F119.6875
aF-1.125
aF-177.875
aI3
aI0
aI0
aI42
aF-2.5625
aF-16.75
aF39.375
aF-0.002222222276031971
aF0.0033333334140479565
aF-0.0011111111380159855
aF-0.23999999463558197
aF0.3700000047683716
aF-9.619999885559082
aF-0.019999999552965164
aF0.029999999329447746
aF0.17000000178813934
aF-0.20000000298023224
aF0.3499999940395355
aF-9.789999961853027
a.(lp0
F119.6875
aF-1.125
aF-177.875
aI3
aI0
aI0
aI42
aF-2.5625
aF-16.75
aF39.375
aF0.0011111111380159855
aF0.0033333334140479565
aF0.0011111111380159855
aF-0.1599999964237213
aF0.36000001430511475
aF-9.699999809265137
aF0.029999999329447746
aF0.019999999552965164
aF0.10999999940395355
aF-0.20000000298023224
aF0.3499999940395355
aF-9.789999961853027
a.(lp0
F119.6875
aF-1.125
aF-177.875
aI3
aI0
aI0
aI42
aF-2.5625
aF-17.875
aF39.75
aF0.006666666828095913
aF0.0033333334140479565
aF0.0
aF-0.1599999964237213
aF0.4099999964237213
aF-9.680000305175781
aF0.05999999865889549
aF0.029999999329447746
aF0.029999999329447746
aF-0.20000000298023224
aF0.3499999940395355
aF-9.789999961853027
a.(lp0
F119.6875
aF-1.125
aF-177.875
aI3
aI0
aI0
aI42
aF-2.5625
aF-17.875
aF39.75
aF0.002222222276031971
aF0.002222222276031971
aF0.0
aF-0.14000000059604645
aF0.3400000035762787
aF-9.630000114440918
aF0.05000000074505806
aF0.0
aF0.1599999964237213
aF-0.20000000298023224
aF0.3499999940395355
aF-9.789999961853027
a.(lp0
F119.6875
aF-1.125
aF-177.875
aI3
aI0
aI0
aI42
aF-2.875
aF-17.5625
aF39.875
aF0.002222222276031971
aF-0.002222222276031971
aF0.0
aF-0.23000000417232513
aF0.2800000011920929
aF-9.770000457763672
aF-0.05999999865889549
aF-0.05999999865889549
aF0.07999999821186066
aF-0.20000000298023224
aF0.3499999940395355
aF-9.789999961853027
a.(lp0
F119.6875
aF-1.125
aF-177.875
aI3
aI0
aI0
aI42
aF-2.5625
aF-17.5625
aF38.5625
aF0.002222222276031971
aF-0.0033333334140479565
aF-0.002222222276031971
aF-0.27000001072883606
aF0.33000001311302185
aF-9.619999885559082
aF-0.07000000029802322
aF-0.009999999776482582
aF0.1599999964237213
aF-0.20000000298023224
aF0.3499999940395355
aF-9.789999961853027
a.(lp0
F119.6875
aF-1.125
aF-177.875
aI3
aI0
aI0
aI42
aF-2.5625
aF-17.5625
aF38.5625
aF-0.0011111111380159855
aF0.0011111111380159855
aF-0.0033333334140479565
aF-0.23999999463558197
aF0.28999999165534973
aF-9.720000267028809
aF-0.019999999552965164
aF-0.07000000029802322
aF0.11999999731779099
aF-0.20000000298023224
aF0.3499999940395355
aF-9.789999961853027
a.(lp0
F119.6875
aF-1.125
aF-177.875
aI3
aI0
aI0
aI42
aF-2.5625
aF-18.25
aF39.0
aF0.0
aF0.004444444552063942
aF-0.002222222276031971
aF-0.17000000178813934
aF0.30000001192092896
aF-9.65999984741211
aF0.03999999910593033
aF-0.009999999776482582
aF0.009999999776482582
aF-0.20000000298023224
aF0.3499999940395355
aF-9.789999961853027
a.(lp0
F119.6875
aF-1.125
aF-177.875
aI3
aI0
aI0
aI42
aF-2.5625
aF-18.25
aF39.0
aF-0.0055555556900799274
aF0.0011111111380159855
aF-0.0011111111380159855
aF-0.18000000715255737
aF0.3199999928474426
aF-9.640000343322754
aF0.009999999776482582
aF-0.029999999329447746
aF0.15000000596046448
aF-0.20000000298023224
aF0.3499999940395355
aF-9.789999961853027
a.(lp0
F119.6875
aF-1.125
aF-177.875
aI3
aI0
aI0
aI42
aF-2.875
aF-17.875
aF39.0
aF-0.0011111111380159855
aF-0.002222222276031971
aF0.0011111111380159855
aF-0.1899999976158142
aF0.3799999952316284
aF-9.760000228881836
aF-0.009999999776482582
aF0.03999999910593033
aF0.10000000149011612
aF-0.20000000298023224
aF0.3499999940395355
aF-9.789999961853027
a.(lp0
F119.6875
aF-1.125
aF-177.875
aI3
aI0
aI0
aI42
aF-2.875
aF-18.25
aF39.0625
aF-0.0011111111380159855
aF0.004444444552063942
aF-0.0011111111380159855
aF-0.23999999463558197
aF0.3499999940395355
aF-9.680000305175781
aF-0.03999999910593033
aF0.0
aF0.10999999940395355
aF-0.20000000298023224
aF0.3499999940395355
aF-9.789999961853027
a.(lp0
F119.6875
aF-1.125
aF-177.875
aI3
aI0
aI0
aI42
aF-2.875
aF-18.25
aF39.0625
aF0.002222222276031971
aF0.0011111111380159855
aF-0.0011111111380159855
aF-0.2199999988079071
aF0.3700000047683716
aF-9.699999809265137
aF0.0
aF0.019999999552965164
aF0.09000000357627869
aF-0.20000000298023224
aF0.3499999940395355
aF-9.789999961853027
a.(lp0
F119.6875
aF-1.125
aF-177.875
aI3
aI0
aI0
aI42
aF-2.5625
aF-18.25
aF39.375
aF0.0033333334140479565
aF0.0033333334140479565
aF0.0
aF-0.17000000178813934
aF0.3100000023841858
aF-9.640000343322754
aF0.0
aF-0.05000000074505806
aF0.029999999329447746
aF-0.20000000298023224
aF0.3499999940395355
aF-9.789999961853027
a.(lp0
F119.6875
aF-1.125
aF-177.875
aI3
aI0
aI0
aI42
aF-2.5625
aF-18.25
aF39.375
aF0.0
aF0.0011111111380159855
aF-0.0011111111380159855
aF-0.20999999344348907
aF0.2800000011920929
aF-9.649999618530273
aF-0.009999999776482582
aF-0.07000000029802322
aF0.14000000059604645
aF-0.20000000298023224
aF0.3499999940395355
aF-9.789999961853027
a.(lp0
F119.6875
aF-1.125
aF-177.875
aI3
aI0
aI0
aI42
aF-1.375
aF-17.875
aF38.5625
aF-0.002222222276031971
aF-0.002222222276031971
aF0.0
aF-0.20000000298023224
aF0.30000001192092896
aF-9.789999961853027
aF-0.019999999552965164
aF-0.03999999910593033
aF0.07000000029802322
aF-0.20000000298023224
aF0.3499999940395355
aF-9.789999961853027
a.(lp0
F119.6875
aF-1.125
aF-177.875
aI3
aI0
aI0
aI42
aF-1.375
aF-17.875
aF39.375
aF-0.004444444552063942
aF0.002222222276031971
aF0.0011111111380159855
aF-0.20000000298023224
aF0.33000001311302185
aF-9.65999984741211
aF0.0
aF-0.009999999776482582
aF0.12999999523162842
aF-0.20000000298023224
aF0.3499999940395355
aF-9.789999961853027
a.(lp0
F119.6875
aF-1.125
aF-177.875
aI3
aI0
aI0
aI42
aF-1.375
aF-17.875
aF39.375
aF-0.004444444552063942
aF0.004444444552063942
aF-0.0011111111380159855
aF-0.18000000715255737
aF0.3700000047683716
aF-9.739999771118164
aF0.029999999329447746
aF0.029999999329447746
aF0.12999999523162842
aF-0.20000000298023224
aF0.3499999940395355
aF-9.789999961853027
a.(lp0
F119.6875
aF-1.125
aF-177.875
aI3
aI0
aI0
aI42
aF-2.5625
aF-17.875
aF39.875
aF-0.002222222276031971
aF0.002222222276031971
aF0.002222222276031971
aF-0.1599999964237213
aF0.3799999952316284
aF-9.609999656677246
aF0.009999999776482582
aF0.019999999552965164
aF0.05999999865889549
aF-0.20000000298023224
aF0.3499999940395355
aF-9.789999961853027
a.(lp0
F119.6875
aF-1.125
aF-177.875
aI3
aI0
aI0
aI42
aF-2.5625
aF-17.875
aF39.875
aF0.0
aF0.0011111111380159855
aF0.0
aF-0.20000000298023224
aF0.3499999940395355
aF-9.640000343322754
aF0.0
aF0.0
aF0.15000000596046448
aF-0.20000000298023224
aF0.3499999940395355
aF-9.789999961853027
a.(lp0
F119.6875
aF-1.125
aF-177.875
aI3
aI0
aI0
aI42
aF-2.875
aF-17.5625
aF40.25
aF0.002222222276031971
aF-0.002222222276031971
aF-0.0011111111380159855
aF-0.2199999988079071
aF0.3199999928474426
aF-9.729999542236328
aF0.0
aF-0.009999999776482582
aF0.07000000029802322
aF-0.20000000298023224
aF0.3499999940395355
aF-9.789999961853027
a.(lp0
F119.6875
aF-1.125
aF-177.875
aI3
aI0
aI0
aI42
aF-2.875
aF-18.25
aF38.5625
aF0.002222222276031971
aF-0.0033333334140479565
aF-0.002222222276031971
aF-0.20000000298023224
aF0.30000001192092896
aF-9.649999618530273
aF0.0
aF-0.03999999910593033
aF0.14000000059604645
aF-0.20000000298023224
aF0.3499999940395355
aF-9.789999961853027
a.(lp0
F119.6875
aF-1.125
aF-177.875
aI3
aI0
aI0
aI42
aF-2.875
aF-18.25
aF38.5625
aF-0.002222222276031971
aF-0.0011111111380159855
aF-0.0033333334140479565
aF-0.17000000178813934
aF0.2800000011920929
aF-9.699999809265137
aF0.029999999329447746
aF-0.07000000029802322
aF0.10999999940395355
aF-0.20000000298023224
aF0.3499999940395355
aF-9.789999961853027
a.(lp0
F119.6875
aF-1.125
aF-177.875
aI3
aI0
aI0
aI42
aF-2.875
aF-17.5625
aF39.0625
aF-0.0055555556900799274
aF0.002222222276031971
aF-0.0011111111380159855
aF-0.20000000298023224
aF0.3199999928474426
aF-9.770000457763672
aF0.0
aF-0.029999999329447746
aF0.019999999552965164
aF-0.20000000298023224
aF0.3499999940395355
aF-9.789999961853027
a.(lp0
F119.6875
aF-1.125
aF-177.875
aI3
aI0
aI0
aI42
aF-2.875
aF-17.5625
aF39.0625
aF-0.0055555556900799274
aF-0.0011111111380159855
aF-0.0011111111380159855
aF-0.20999999344348907
aF0.3799999952316284
aF-9.640000343322754
aF-0.009999999776482582
aF0.019999999552965164
aF0.14000000059604645
aF-0.20000000298023224
aF0.3499999940395355
aF-9.789999961853027
a.(lp0
F119.6875
aF-1.125
aF-177.875
aI3
aI0
aI0
aI42
aF-2.5625
aF-17.875
aF38.5625
aF-0.0033333334140479565
aF0.0033333334140479565
aF0.0011111111380159855
aF-0.18000000715255737
aF0.41999998688697815
aF-9.760000228881836
aF-0.009999999776482582
aF0.07999999821186066
aF0.07000000029802322
aF-0.20000000298023224
aF0.3499999940395355
aF-9.789999961853027
a.(lp0
F119.6875
aF-1.125
aF-177.875
aI3
aI0
aI0
aI42
aF-2.5625
aF-17.1875
aF39.875
aF0.0
aF0.006666666828095913
aF0.002222222276031971
aF-0.18000000715255737
aF0.4099999964237213
aF-9.640000343322754
aF0.009999999776482582
aF0.05999999865889549
aF0.15000000596046448
aF-0.20000000298023224
aF0.3499999940395355
aF-9.789999961853027
a.(lp0
F119.6875
aF-1.125
aF-177.875
aI3
aI0
aI0
aI42
aF-2.5625
aF-17.1875
aF39.875
aF0.004444444552063942
aF-0.0011111111380159855
aF-0.0011111111380159855
aF-0.1599999964237213
aF0.3700000047683716
aF-9.680000305175781
aF0.019999999552965164
aF0.0
aF0.14000000059604645
aF-0.20000000298023224
aF0.3499999940395355
aF-9.789999961853027
a.(lp0
F119.6875
aF-1.125
aF-177.875
aI3
aI0
aI0
aI42
aF-3.25
aF-17.5625
aF39.375
aF0.002222222276031971
aF-0.0055555556900799274
aF-0.0011111111380159855
aF-0.20999999344348907
aF0.30000001192092896
aF-9.760000228881836
aF-0.009999999776482582
aF-0.05000000074505806
aF0.019999999552965164
aF-0.20000000298023224
aF0.3499999940395355
aF-9.789999961853027
a.(lp0
F119.6875
aF-1.125
aF-177.875
aI3
aI0
aI0
aI42
aF-3.25
aF-17.5625
aF39.375
aF0.0011111111380159855
aF-0.002222222276031971
aF-0.002222222276031971
aF-0.23999999463558197
aF0.25999999046325684
aF-9.649999618530273
aF-0.03999999910593033
aF-0.07999999821186066
aF0.14000000059604645
aF-0.20000000298023224
aF0.3499999940395355
aF-9.789999961853027
a.(lp0
F119.6875
aF-1.125
aF-177.875
aI3
aI0
aI0
aI42
aF-2.875
aF-17.875
aF37.75
aF0.0
aF0.0
aF0.0
aF-0.23000000417232513
aF0.28999999165534973
aF-9.739999771118164
aF0.0
aF-0.05000000074505806
aF0.07999999821186066
aF-0.20000000298023224
aF0.3499999940395355
aF-9.789999961853027
a.(lp0
F119.6875
aF-1.125
aF-177.875
aI3
aI0
aI0
aI42
aF-2.875
aF-17.1875
aF39.375
aF-0.0011111111380159855
aF0.0055555556900799274
aF-0.0011111111380159855
aF-0.17000000178813934
aF0.3400000035762787
aF-9.649999618530273
aF0.019999999552965164
aF0.0
aF0.14000000059604645
aF-0.20000000298023224
aF0.3499999940395355
aF-9.789999961853027
a.(lp0
F119.6875
aF-1.125
aF-177.875
aI3
aI0
aI0
aI42
aF-2.875
aF-17.1875
aF39.375
aF-0.002222222276031971
aF0.004444444552063942
aF-0.0011111111380159855
aF-0.17000000178813934
aF0.3799999952316284
aF-9.6899995803833
aF0.0
aF0.019999999552965164
aF0.12999999523162842
aF-0.20000000298023224
aF0.3499999940395355
aF-9.789999961853027
a.(lp0
F119.6875
aF-1.125
aF-177.875
aI3
aI0
aI0
aI42
aF-2.5625
aF-18.6875
aF38.5625
aF0.0
aF-0.0011111111380159855
aF0.0
aF-0.1899999976158142
aF0.38999998569488525
aF-9.710000038146973
aF-0.009999999776482582
aF0.009999999776482582
aF0.14000000059604645
aF-0.20000000298023224
aF0.3499999940395355
aF-9.789999961853027
a.(lp0
F119.6875
aF-1.125
aF-177.875
aI3
aI0
aI0
aI42
aF-2.5625
aF-17.875
aF39.0
aF0.002222222276031971
aF-0.0033333334140479565
aF0.0
aF-0.17000000178813934
aF0.36000001430511475
aF-9.680000305175781
aF0.019999999552965164
aF0.009999999776482582
aF0.10999999940395355
aF-0.20000000298023224
aF0.3499999940395355
aF-9.789999961853027
a.(lp0
F119.6875
aF-1.125
aF-177.875
aI3
aI0
aI0
aI42
aF-2.5625
aF-19.0625
aF38.1875
aF0.002222222276031971
aF-0.002222222276031971
aF0.0
aF-0.20000000298023224
aF0.28999999165534973
aF-9.770000457763672
aF-0.009999999776482582
aF-0.05999999865889549
aF0.029999999329447746
aF-0.20000000298023224
aF0.3499999940395355
aF-9.789999961853027
a.(lp0
F119.6875
aF-1.125
aF-177.875
aI3
aI0
aI0
aI42
aF-3.25
aF-18.25
aF38.0625
aF0.0011111111380159855
aF-0.0011111111380159855
aF0.0
aF-0.23000000417232513
aF0.28999999165534973
aF-9.75
aF-0.029999999329447746
aF-0.05999999865889549
aF0.029999999329447746
aF-0.20000000298023224
aF0.3499999940395355
aF-9.789999961853027
a.(lp0
F119.6875
aF-1.125
aF-177.875
aI3
aI0
aI0
aI42
aF-1.75
aF-17.875
aF37.75
aF-0.0033333334140479565
aF0.0011111111380159855
aF-0.0011111111380159855
aF-2.509999990463257
aF5.699999809265137
aF-12.760000228881836
aF-2.309999942779541
aF5.349999904632568
aF-2.9600000381469727
aF-0.03999999910593033
aF0.3199999928474426
aF-9.800000190734863
a.(lp0
F128.5625
aF-0.625
aF-177.3125
aI3
aI0
aI0
aI42
aF-1.0625
aF-15.0625
aF32.0625
aF-0.002222222276031971
aF-0.01666666753590107
aF0.0
aF-0.14000000059604645
aF0.3100000023841858
aF-9.739999771118164
aF-0.03999999910593033
aF-0.10999999940395355
aF0.10999999940395355
aF-0.10999999940395355
aF0.44999998807907104
aF-9.789999961853027
a.(lp0
F128.5625
aF-0.6875
aF-177.3125
aI3
aI0
aI0
aI42
aF-0.75
aF-14.25
aF32.875
aF-0.0055555556900799274
aF-0.014444444328546524
aF-0.0033333334140479565
aF-0.14000000059604645
aF0.3400000035762787
aF-9.789999961853027
aF-0.019999999552965164
aF-0.10000000149011612
aF0.0
aF-0.11999999731779099
aF0.44999998807907104
aF-9.789999961853027
a.(lp0
F128.5625
aF-0.6875
aF-177.3125
aI3
aI0
aI0
aI42
aF-0.75
aF-14.25
aF32.875
aF-0.0033333334140479565
aF0.0011111111380159855
aF0.0
aF-0.17000000178813934
aF0.3799999952316284
aF-9.670000076293945
aF-0.03999999910593033
aF-0.05999999865889549
aF0.11999999731779099
aF-0.11999999731779099
aF0.44999998807907104
aF-9.789999961853027
a.(lp0
F128.5625
aF-0.6875
aF-177.3125
aI3
aI0
aI0
aI42
aF-0.75
aF-14.6875
aF32.875
aF0.002222222276031971
aF0.009999999776482582
aF0.0011111111380159855
aF-0.12999999523162842
aF0.4099999964237213
aF-9.729999542236328
aF-0.019999999552965164
aF-0.05000000074505806
aF0.14000000059604645
aF-0.11999999731779099
aF0.44999998807907104
aF-9.789999961853027
a.(lp0
F128.5625
aF-0.6875
aF-177.3125
aI3
aI0
aI0
aI42
aF0.0
aF-14.25
aF30.875
aF0.0033333334140479565
aF0.015555555932223797
aF0.0011111111380159855
aF-0.11999999731779099
aF0.3700000047683716
aF-9.760000228881836
aF-0.009999999776482582
aF-0.07000000029802322
aF0.019999999552965164
aF-0.10999999940395355
aF0.44999998807907104
aF-9.789999961853027
a.(lp0
F128.5625
aF-0.625
aF-177.3125
aI3
aI0
aI0
aI42
aF-0.375
aF-14.25
aF32.0625
aF0.0055555556900799274
aF0.0
aF-0.002222222276031971
aF-0.12999999523162842
aF0.36000001430511475
aF-9.630000114440918
aF-0.009999999776482582
aF-0.07999999821186066
aF0.15000000596046448
aF-0.10999999940395355
aF0.44999998807907104
aF-9.789999961853027
a.(lp0
F128.5625
aF-0.625
aF-177.3125
aI3
aI0
aI0
aI42
aF-0.375
aF-14.25
aF32.0625
aF-0.002222222276031971
aF-0.013333333656191826
aF-0.0011111111380159855
aF-0.14000000059604645
aF0.3499999940395355
aF-9.649999618530273
aF-0.019999999552965164
aF-0.09000000357627869
aF0.12999999523162842
aF-0.10999999940395355
aF0.44999998807907104
aF-9.789999961853027
a.(lp0
F128.5625
aF-0.6875
aF-177.3125
aI3
aI0
aI0
aI42
aF-0.75
aF-14.25
aF31.75
aF-0.0011111111380159855
aF-0.017777778208255768
aF-0.002222222276031971
aF-0.15000000596046448
aF0.33000001311302185
aF-9.770000457763672
aF-0.019999999552965164
aF-0.11999999731779099
aF0.07999999821186066
aF-0.11999999731779099
aF0.44999998807907104
aF-9.789999961853027
a.(lp0
F128.5625
aF-0.6875
aF-177.3125
aI3
aI0
aI0
aI42
aF-1.0625
aF-14.25
aF32.5625
aF-0.0033333334140479565
aF-0.007777777966111898
aF-0.0011111111380159855
aF-0.15000000596046448
aF0.36000001430511475
aF-9.65999984741211
aF-0.019999999552965164
aF-0.07999999821186066
aF0.12999999523162842
aF-0.11999999731779099
aF0.44999998807907104
aF-9.789999961853027
a.(lp0
F128.5625
aF-0.6875
aF-177.3125
aI3
aI0
aI0
aI42
aF-1.0625
aF-14.25
aF32.5625
aF0.002222222276031971
aF0.014444444328546524
aF0.0011111111380159855
aF-0.14000000059604645
aF0.3700000047683716
aF-9.65999984741211
aF-0.019999999552965164
aF-0.07000000029802322
aF0.12999999523162842
aF-0.11999999731779099
aF0.44999998807907104
aF-9.789999961853027
a.(lp0
F128.5625
aF-0.6875
aF-177.3125
aI3
aI0
aI0
aI42
aF-1.5
aF-14.25
aF33.0
aF0.0011111111380159855
aF0.011111111380159855
aF0.002222222276031971
aF-0.14000000059604645
aF0.3799999952316284
aF-9.729999542236328
aF-0.019999999552965164
aF-0.05999999865889549
aF0.05999999865889549
aF-0.10999999940395355
aF0.44999998807907104
aF-9.789999961853027
a.(lp0
F128.5625
aF-0.6875
aF-177.3125
aI3
aI0
aI0
aI42
aF0.0
aF-14.25
aF32.0625
aF0.002222222276031971
aF0.009999999776482582
aF-0.0011111111380159855
aF-0.15000000596046448
aF0.36000001430511475
aF-9.6899995803833
aF-0.029999999329447746
aF-0.07999999821186066
aF0.10000000149011612
aF-0.10999999940395355
aF0.44999998807907104
aF-9.789999961853027
a.(lp0
F128.5625
aF-0.6875
aF-177.3125
aI3
aI0
aI0
aI42
aF0.0
aF-14.25
aF32.0625
aF0.0011111111380159855
aF-0.0011111111380159855
aF-0.002222222276031971
aF-0.12999999523162842
aF0.3700000047683716
aF-9.739999771118164
aF0.0
aF-0.10000000149011612
aF0.12999999523162842
aF-0.10999999940395355
aF0.44999998807907104
aF-9.789999961853027
a.(lp0
F128.5625
aF-0.6875
aF-177.3125
aI3
aI0
aI0
aI42
aF-1.0625
aF-14.6875
aF33.375
aF0.0
aF-0.011111111380159855
aF-0.002222222276031971
aF-0.12999999523162842
aF0.3499999940395355
aF-9.75
aF-0.009999999776482582
aF-0.09000000357627869
aF0.029999999329447746
aF-0.11999999731779099
aF0.44999998807907104
aF-9.789999961853027
a.(lp0
F128.5625
aF-0.6875
aF-177.3125
aI3
aI0
aI0
aI42
aF-1.0625
aF-14.6875
aF33.375
aF-0.002222222276031971
aF-0.009999999776482582
aF-0.0011111111380159855
aF-0.15000000596046448
aF0.33000001311302185
aF-9.619999885559082
aF-0.029999999329447746
aF-0.10999999940395355
aF0.17000000178813934
aF-0.11999999731779099
aF0.44999998807907104
aF-9.789999961853027
a.(lp0
F128.5625
aF-0.6875
aF-177.3125
aI3
aI0
aI0
aI42
aF-0.75
aF-15.0625
aF32.0625
aF0.0011111111380159855
aF0.0011111111380159855
aF-0.0011111111380159855
aF-0.17000000178813934
aF0.3400000035762787
aF-9.729999542236328
aF-0.029999999329447746
aF-0.09000000357627869
aF0.10000000149011612
aF-0.11999999731779099
aF0.44999998807907104
aF-9.789999961853027
a.(lp0
F128.5625
aF-0.6875
aF-177.3125
aI3
aI0
aI0
aI42
aF-1.0625
aF-13.5625
aF31.6875
aF0.0011111111380159855
aF0.012222222052514553
aF0.002222222276031971
aF-0.12999999523162842
aF0.36000001430511475
aF-9.779999732971191
aF-0.009999999776482582
aF-0.09000000357627869
aF0.07000000029802322
aF-0.10999999940395355
aF0.44999998807907104
aF-9.789999961853027
a.(lp0
F128.5625
aF-0.6875
aF-177.3125
aI3
aI0
aI0
aI42
aF-0.75
aF-15.5
aF31.6875
aF0.002222222276031971
aF0.009999999776482582
aF0.0011111111380159855
aF-0.12999999523162842
aF0.3400000035762787
aF-9.649999618530273
aF-0.019999999552965164
aF-0.10000000149011612
aF0.14000000059604645
aF-0.10999999940395355
aF0.44999998807907104
aF-9.789999961853027
a.(lp0
F128.5625
aF-0.6875
aF-177.3125
aI3
aI0
aI0
aI42
aF-0.75
aF-15.5
aF31.6875
aF-0.0011111111380159855
aF0.0
aF0.0
aF-0.12999999523162842
aF0.36000001430511475
aF-9.670000076293945
aF-0.019999999552965164
aF-0.07999999821186066
aF0.10999999940395355
aF-0.10999999940395355
aF0.44999998807907104
aF-9.789999961853027
a.(lp0
F128.5625
aF-0.6875
aF-177.3125
aI3
aI0
aI0
aI42
aF0.0
aF-14.6875
aF31.6875
aF0.0011111111380159855
aF-0.012222222052514553
aF-0.0011111111380159855
aF-0.12999999523162842
aF0.3799999952316284
aF-9.770000457763672
aF-0.009999999776482582
aF-0.07999999821186066
aF0.03999999910593033
aF-0.11999999731779099
aF0.44999998807907104
aF-9.789999961853027
a.(lp0
F128.5625
aF-0.6875
aF-177.3125
aI3
aI0
aI0
aI42
aF-1.0625
aF-15.5
aF32.5625
aF-0.0011111111380159855
aF-0.011111111380159855
aF0.0
aF-0.14000000059604645
aF0.33000001311302185
aF-9.649999618530273
aF-0.019999999552965164
aF-0.10999999940395355
aF0.14000000059604645
aF-0.11999999731779099
aF0.44999998807907104
aF-9.789999961853027
a.(lp0
F128.5625
aF-0.6875
aF-177.3125
aI3
aI0
aI0
aI42
aF-1.0625
aF-15.5
aF32.5625
aF-0.0011111111380159855
aF-0.006666666828095913
aF0.0
aF-0.15000000596046448
aF0.28999999165534973
aF-9.670000076293945
aF-0.029999999329447746
aF-0.15000000596046448
aF0.11999999731779099
aF-0.11999999731779099
aF0.44999998807907104
aF-9.789999961853027
a.(lp0
F128.5625
aF-0.6875
aF-177.3125
aI3
aI0
aI0
aI42
aF-0.75
aF-14.25
aF32.5625
aF0.0011111111380159855
aF0.006666666828095913
aF0.002222222276031971
aF-0.1599999964237213
aF0.3400000035762787
aF-9.779999732971191
aF-0.019999999552965164
aF-0.11999999731779099
aF0.07000000029802322
aF-0.11999999731779099
aF0.44999998807907104
aF-9.789999961853027
a.(lp0
F128.5625
aF-0.6875
aF-177.3125
aI3
aI0
aI0
aI42
aF-0.75
aF-13.5625
aF32.875
aF0.0
aF0.008888889104127884
aF0.0
aF-0.14000000059604645
aF0.36000001430511475
aF-9.65999984741211
aF-0.019999999552965164
aF-0.07999999821186066
aF0.12999999523162842
aF-0.11999999731779099
aF0.44999998807907104
aF-9.789999961853027
a.(lp0
F128.5625
aF-0.6875
aF-177.3125
aI3
aI0
aI0
aI42
aF-0.75
aF-13.5625
aF32.875
aF0.0011111111380159855
aF0.007777777966111898
aF0.0011111111380159855
aF-0.11999999731779099
aF0.3799999952316284
aF-9.65999984741211
aF0.0
aF-0.05999999865889549
aF0.11999999731779099
aF-0.11999999731779099
aF0.44999998807907104
aF-9.789999961853027
a.(lp0
F128.5625
aF-0.6875
aF-177.3125
aI3
aI0
aI0
aI42
aF-0.75
aF-15.75
aF32.0625
aF-0.0011111111380159855
aF-0.0033333334140479565
aF0.0
aF-0.12999999523162842
aF0.3700000047683716
aF-9.770000457763672
aF-0.009999999776482582
aF-0.07000000029802322
aF0.07000000029802322
aF-0.11999999731779099
aF0.44999998807907104
aF-9.789999961853027
a.(lp0
F128.5625
aF-0.6875
aF-177.3125
aI3
aI0
aI0
aI42
aF-0.375
aF-13.5625
aF32.875
aF-0.0011111111380159855
aF-0.011111111380159855
aF-0.0033333334140479565
aF-0.14000000059604645
aF0.3700000047683716
aF-9.699999809265137
aF-0.009999999776482582
aF-0.07000000029802322
aF0.07999999821186066
aF-0.11999999731779099
aF0.44999998807907104
aF-9.789999961853027
a.(lp0
F128.5625
aF-0.6875
aF-177.3125
aI3
aI0
aI0
aI42
aF-0.375
aF-13.5625
aF32.875
aF0.0
aF-0.008888889104127884
aF0.0011111111380159855
aF-0.1599999964237213
aF0.33000001311302185
aF-9.649999618530273
aF-0.03999999910593033
aF-0.10999999940395355
aF0.14000000059604645
aF-0.11999999731779099
aF0.44999998807907104
aF-9.789999961853027
a.(lp0
F128.5625
aF-0.6875
aF-177.3125
aI3
aI0
aI0
aI42
aF-0.375
aF-15.0625
aF32.875
aF0.0011111111380159855
aF0.002222222276031971
aF0.0033333334140479565
aF-0.14000000059604645
aF0.3400000035762787
aF-9.710000038146973
aF-0.009999999776482582
aF-0.10000000149011612
aF0.07999999821186066
aF-0.11999999731779099
aF0.44999998807907104
aF-9.789999961853027
a.(lp0
F128.5625
aF-0.6875
aF-177.3125
aI3
aI0
aI0
aI42
aF-0.75
aF-14.6875
aF34.25
aF0.0011111111380159855
aF0.0055555556900799274
aF0.0011111111380159855
aF-0.11999999731779099
aF0.3400000035762787
aF-9.649999618530273
aF0.0
aF-0.10000000149011612
aF0.14000000059604645
aF-0.11999999731779099
aF0.44999998807907104
aF-9.789999961853027
a.(lp0
F128.5625
aF-0.6875
aF-177.3125
aI3
aI0
aI0
aI42
aF-0.75
aF-14.6875
aF34.25
aF0.002222222276031971
aF0.0055555556900799274
aF0.0
aF-0.14000000059604645
aF0.3400000035762787
aF-9.6899995803833
aF-0.019999999552965164
aF-0.10000000149011612
aF0.09000000357627869
aF-0.11999999731779099
aF0.44999998807907104
aF-9.789999961853027
a.(lp0
F128.5625
aF-0.6875
aF-177.3125
aI3
aI0
aI0
aI42
aF-0.375
aF-14.25
aF31.6875
aF-0.0011111111380159855
aF-0.0011111111380159855
aF0.0
aF-0.1599999964237213
aF0.3700000047683716
aF-9.770000457763672
aF-0.009999999776482582
aF-0.07999999821186066
aF0.05000000074505806
aF-0.11999999731779099
aF0.44999998807907104
aF-9.789999961853027
a.(lp0
F128.5625
aF-0.6875
aF-177.3125
aI3
aI0
aI0
aI42
aF-1.0625
aF-15.0625
aF32.0625
aF0.0
aF-0.004444444552063942
aF0.0
aF-0.12999999523162842
aF0.3799999952316284
aF-9.640000343322754
aF0.0
aF-0.05999999865889549
aF0.15000000596046448
aF-0.11999999731779099
aF0.44999998807907104
aF-9.789999961853027
a.(lp0
F128.5625
aF-0.6875
aF-177.3125
aI3
aI0
aI0
aI42
aF-1.0625
aF-15.0625
aF32.0625
aF0.0
aF-0.007777777966111898
aF0.0
aF-0.10999999940395355
aF0.3499999940395355
aF-9.670000076293945
aF0.0
aF-0.09000000357627869
aF0.11999999731779099
aF-0.11999999731779099
aF0.44999998807907104
aF-9.789999961853027
a.(lp0
F128.5625
aF-0.6875
aF-177.3125
aI3
aI0
aI0
aI42
aF-1.0625
aF-13.1875
aF32.875
aF0.002222222276031971
aF-0.0033333334140479565
aF-0.002222222276031971
aF-0.12999999523162842
aF0.3400000035762787
aF-9.770000457763672
aF0.0
aF-0.09000000357627869
aF0.07000000029802322
aF-0.11999999731779099
aF0.44999998807907104
aF-9.789999961853027
a.(lp0
F128.5625
aF-0.6875
aF-177.3125
aI3
aI0
aI0
aI42
aF-0.75
aF-14.25
aF32.0625
aF0.002222222276031971
aF0.007777777966111898
aF-0.0011111111380159855
aF-0.17000000178813934
aF0.33000001311302185
aF-9.670000076293945
aF-0.05000000074505806
aF-0.10999999940395355
aF0.10999999940395355
aF-0.11999999731779099
aF0.44999998807907104
aF-9.789999961853027
a.(lp0
F128.5625
aF-0.6875
aF-177.3125
aI3
aI0
aI0
aI42
aF-0.75
aF-14.25
aF32.0625
aF0.0011111111380159855
aF0.008888889104127884
aF0.0011111111380159855
aF-0.1599999964237213
aF0.33000001311302185
aF-9.680000305175781
aF-0.03999999910593033
aF-0.10999999940395355
aF0.10999999940395355
aF-0.11999999731779099
aF0.44999998807907104
aF-9.789999961853027
a.(lp0
F128.5625
aF-0.6875
aF-177.3125
aI3
aI0
aI0
aI42
aF-0.375
aF-14.0
aF32.875
aF-0.0011111111380159855
aF0.004444444552063942
aF-0.0011111111380159855
aF-0.11999999731779099
aF0.36000001430511475
aF-9.779999732971191
aF0.0
aF-0.07999999821186066
aF0.05999999865889549
aF-0.11999999731779099
aF0.44999998807907104
aF-9.789999961853027
a.(lp0
F128.5625
aF-0.6875
aF-177.3125
aI3
aI0
aI0
aI42
aF-0.375
aF-15.5
aF32.5625
aF-0.0033333334140479565
aF-0.0011111111380159855
aF0.0
aF-0.12999999523162842
aF0.3499999940395355
aF-9.670000076293945
aF0.0
aF-0.09000000357627869
aF0.10999999940395355
aF-0.11999999731779099
aF0.44999998807907104
aF-9.789999961853027
a.(lp0
F128.5625
aF-0.6875
aF-177.3125
aI3
aI0
aI0
aI42
aF-0.375
aF-15.5
aF32.5625
aF-0.0011111111380159855
aF-0.008888889104127884
aF-0.002222222276031971
aF-0.1599999964237213
aF0.36000001430511475
aF-9.670000076293945
aF-0.03999999910593033
aF-0.07999999821186066
aF0.10999999940395355
aF-0.11999999731779099
aF0.44999998807907104
aF-9.789999961853027
a.(lp0
F128.5625
aF-0.6875
aF-177.3125
aI3
aI0
aI0
aI42
aF-0.375
aF-15.0625
aF32.5
aF-0.0011111111380159855
aF-0.006666666828095913
aF-0.002222222276031971
aF-0.1599999964237213
aF0.36000001430511475
aF-9.760000228881836
aF-0.029999999329447746
aF-0.10000000149011612
aF0.07000000029802322
aF-0.11999999731779099
aF0.44999998807907104
aF-9.789999961853027
a.(lp0
F128.5625
aF-0.6875
aF-177.3125
aI3
aI0
aI0
aI42
aF-1.0625
aF-14.6875
aF33.375
aF0.0011111111380159855
aF0.0011111111380159855
aF0.0
aF-0.14000000059604645
aF0.36000001430511475
aF-9.720000267028809
aF-0.019999999552965164
aF-0.07999999821186066
aF0.07000000029802322
aF-0.11999999731779099
aF0.44999998807907104
aF-9.789999961853027
a.(lp0
F128.5625
aF-0.6875
aF-177.3125
aI3
aI0
aI0
aI42
aF-1.0625
aF-14.6875
aF33.375
aF-0.0033333334140479565
aF0.009999999776482582
aF0.002222222276031971
aF-0.10999999940395355
aF0.3700000047683716
aF-9.710000038146973
aF0.0
aF-0.07000000029802322
aF0.07999999821186066
aF-0.11999999731779099
aF0.44999998807907104
aF-9.789999961853027
a.(lp0
F128.5625
aF-0.6875
aF-177.3125
aI3
aI0
aI0
aI42
aF-1.0625
aF-15.0625
aF32.5625
aF0.004444444552063942
aF0.004444444552063942
aF0.0
aF-0.07999999821186066
aF0.44999998807907104
aF-9.760000228881836
aF0.07000000029802322
aF0.019999999552965164
aF0.10999999940395355
aF-0.11999999731779099
aF0.44999998807907104
aF-9.789999961853027
a.(lp0
F128.5625
aF-0.6875
aF-177.3125
aI3
aI0
aI0
aI42
aF-0.375
aF-14.6875
aF33.375
aF0.007777777966111898
aF-0.0033333334140479565
aF0.002222222276031971
aF-0.10000000149011612
aF0.4000000059604645
aF-9.65999984741211
aF0.019999999552965164
aF-0.03999999910593033
aF0.11999999731779099
aF-0.11999999731779099
aF0.44999998807907104
aF-9.789999961853027
a.(lp0
F128.5625
aF-0.6875
aF-177.3125
aI3
aI0
aI0
aI42
aF-0.375
aF-14.6875
aF33.375
aF0.002222222276031971
aF-0.013333333656191826
aF0.002222222276031971
aF-0.20999999344348907
aF0.23999999463558197
aF-9.699999809265137
aF-0.07999999821186066
aF-0.20000000298023224
aF0.09000000357627869
aF-0.11999999731779099
aF0.44999998807907104
aF-9.789999961853027
a.(lp0
F128.5625
aF-0.75
aF-177.3125
aI3
aI0
aI0
aI42
aF-0.375
aF-14.6875
aF32.0625
aF0.0
aF-0.0055555556900799274
aF-0.004444444552063942
aF-0.23000000417232513
aF0.3400000035762787
aF-9.789999961853027
aF-0.10000000149011612
aF-0.10000000149011612
aF0.05999999865889549
aF-0.12999999523162842
aF0.44999998807907104
aF-9.789999961853027
a.(lp0
F128.5625
aF-0.75
aF-177.3125
aI3
aI0
aI0
aI42
aF-0.375
aF-15.5
aF33.0
aF-0.0011111111380159855
aF0.004444444552063942
aF-0.0055555556900799274
aF-0.1599999964237213
aF0.3100000023841858
aF-9.619999885559082
aF-0.029999999329447746
aF-0.12999999523162842
aF0.1599999964237213
aF-0.12999999523162842
aF0.44999998807907104
aF-9.789999961853027
a.(lp0
F128.5625
aF-0.75
aF-177.3125
aI3
aI0
aI0
aI42
aF-0.375
aF-15.5
aF33.0
aF0.0033333334140479565
aF0.011111111380159855
aF0.0
aF-0.10000000149011612
aF0.30000001192092896
aF-9.699999809265137
aF0.019999999552965164
aF-0.14000000059604645
aF0.09000000357627869
aF-0.11999999731779099
aF0.44999998807907104
aF-9.789999961853027
a.(lp0
F128.5625
aF-0.6875
aF-177.3125
aI3
aI0
aI0
aI42
aF-0.375
aF-15.0625
aF32.875
aF-0.002222222276031971
aF0.009999999776482582
aF0.0011111111380159855
aF-0.10000000149011612
aF0.3199999928474426
aF-9.779999732971191
aF0.009999999776482582
aF-0.09000000357627869
aF0.03999999910593033
aF-0.11999999731779099
aF0.44999998807907104
aF-9.789999961853027
a.(lp0
F128.5625
aF-0.6875
aF-177.3125
aI3
aI0
aI0
aI42
aF-1.5
aF-15.0625
aF32.0625
aF-0.0033333334140479565
aF0.0033333334140479565
aF-0.0011111111380159855
aF-0.15000000596046448
aF0.46000000834465027
aF-9.65999984741211
aF-0.019999999552965164
aF0.009999999776482582
aF0.12999999523162842
aF-0.11999999731779099
aF0.44999998807907104
aF-9.789999961853027
a.(lp0
F128.5625
aF-0.6875
aF-177.3125
aI3
aI0
aI0
aI42
aF-1.5
aF-15.0625
aF32.0625
aF-0.002222222276031971
aF-0.0055555556900799274
aF-0.0011111111380159855
aF-0.15000000596046448
aF0.41999998688697815
aF-9.640000343322754
aF-0.029999999329447746
aF-0.019999999552965164
aF0.14000000059604645
aF-0.11999999731779099
aF0.44999998807907104
aF-9.789999961853027
a.(lp0
F128.5625
aF-0.6875
aF-177.3125
aI3
aI0
aI0
aI42
aF-1.5
aF-16.1875
aF33.0
aF0.004444444552063942
aF-0.006666666828095913
aF0.0011111111380159855
aF-0.10999999940395355
aF0.3400000035762787
aF-9.789999961853027
aF0.0
aF-0.10999999940395355
aF0.029999999329447746
aF-0.11999999731779099
aF0.44999998807907104
aF-9.789999961853027
a.(lp0
F128.5625
aF-0.6875
aF-177.3125
aI3
aI0
aI0
aI42
aF-1.0625
aF-15.5
aF32.5625
aF0.002222222276031971
aF-0.007777777966111898
aF-0.002222222276031971
aF-0.12999999523162842
aF0.3100000023841858
aF-9.6899995803833
aF-0.009999999776482582
aF-0.12999999523162842
aF0.09000000357627869
aF-0.11999999731779099
aF0.44999998807907104
aF-9.789999961853027
a.(lp0
F128.5625
aF-0.6875
aF-177.3125
aI3
aI0
aI0
aI42
aF-1.0625
aF-15.5
aF32.5625
aF0.0011111111380159855
aF0.0011111111380159855
aF0.0011111111380159855
aF-0.17000000178813934
aF0.3100000023841858
aF-9.640000343322754
aF-0.05000000074505806
aF-0.12999999523162842
aF0.14000000059604645
aF-0.11999999731779099
aF0.44999998807907104
aF-9.789999961853027
a.(lp0
F128.5625
aF-0.6875
aF-177.3125
aI3
aI0
aI0
aI42
aF-0.375
aF-15.0625
aF32.5
aF0.0011111111380159855
aF0.0055555556900799274
aF0.0011111111380159855
aF-0.1899999976158142
aF0.30000001192092896
aF-9.729999542236328
aF-0.05999999865889549
aF-0.14000000059604645
aF0.05999999865889549
aF-0.11999999731779099
aF0.44999998807907104
aF-9.789999961853027
a.(lp0
F128.5625
aF-0.6875
aF-177.3125
aI3
aI0
aI0
aI42
aF-1.5
aF-14.25
aF32.0625
aF-0.0011111111380159855
aF0.006666666828095913
aF-0.0011111111380159855
aF-0.15000000596046448
aF0.3400000035762787
aF-9.649999618530273
aF-0.019999999552965164
aF-0.10000000149011612
aF0.14000000059604645
aF-0.11999999731779099
aF0.44999998807907104
aF-9.789999961853027
a.(lp0
F128.5625
aF-0.6875
aF-177.3125
aI3
aI0
aI0
aI42
aF-1.5
aF-14.25
aF32.0625
aF-0.0011111111380159855
aF0.002222222276031971
aF-0.002222222276031971
aF-0.11999999731779099
aF0.38999998569488525
aF-9.6899995803833
aF0.0
aF-0.05000000074505806
aF0.09000000357627869
aF-0.11999999731779099
aF0.44999998807907104
aF-9.789999961853027
a.(lp0
F128.5625
aF-0.6875
aF-177.3125
aI3
aI0
aI0
aI42
aF-1.0625
aF-14.25
aF32.5625
aF-0.0011111111380159855
aF-0.0055555556900799274
aF0.0
aF-0.10999999940395355
aF0.4300000071525574
aF-9.770000457763672
aF0.0
aF0.0
aF0.05999999865889549
aF-0.11999999731779099
aF0.44999998807907104
aF-9.789999961853027
a.(lp0
F128.5625
aF-0.6875
aF-177.3125
aI3
aI0
aI0
aI42
aF-1.875
aF-14.0
aF32.875
aF0.002222222276031971
aF-0.0055555556900799274
aF0.0
aF-0.10999999940395355
aF0.4000000059604645
aF-9.640000343322754
aF0.009999999776482582
aF-0.03999999910593033
aF0.14000000059604645
aF-0.11999999731779099
aF0.44999998807907104
aF-9.789999961853027
a.(lp0
F128.5625
aF-0.6875
aF-177.3125
aI3
aI0
aI0
aI42
aF-1.875
aF-14.0
aF32.875
aF0.008888889104127884
aF0.0011111111380159855
aF-0.002222222276031971
aF-0.10999999940395355
aF0.3199999928474426
aF-9.710000038146973
aF0.0
aF-0.11999999731779099
aF0.07000000029802322
aF-0.11999999731779099
aF0.44999998807907104
aF-9.789999961853027
a.(lp0
F128.5625
aF-0.6875
aF-177.3125
aI3
aI0
aI0
aI42
aF-1.5
aF-14.25
aF31.25
aF0.004444444552063942
aF0.002222222276031971
aF-0.0011111111380159855
aF-0.17000000178813934
aF0.27000001072883606
aF-9.739999771118164
aF-0.03999999910593033
aF-0.17000000178813934
aF0.03999999910593033
aF-0.11999999731779099
aF0.44999998807907104
aF-9.789999961853027
a.(lp0
F128.5625
aF-0.6875
aF-177.3125
aI3
aI0
aI0
aI42
aF-1.0625
aF-15.0625
aF32.5625
aF0.0
aF0.0055555556900799274
aF-0.0011111111380159855
aF-0.20000000298023224
aF0.33000001311302185
aF-9.649999618530273
aF-0.07000000029802322
aF-0.10999999940395355
aF0.12999999523162842
aF-0.11999999731779099
aF0.44999998807907104
aF-9.789999961853027
a.(lp0
F128.5625
aF-0.6875
aF-177.3125
aI3
aI0
aI0
aI42
aF-1.0625
aF-15.0625
aF32.5625
aF-0.006666666828095913
aF0.0011111111380159855
aF-0.0011111111380159855
aF-0.10999999940395355
aF0.3499999940395355
aF-9.649999618530273
aF0.009999999776482582
aF-0.09000000357627869
aF0.12999999523162842
aF-0.11999999731779099
aF0.44999998807907104
aF-9.789999961853027
a.(lp0
F128.5625
aF-0.6875
aF-177.3125
aI3
aI0
aI0
aI42
aF-1.0625
aF-15.0625
aF32.1875
aF-0.0033333334140479565
aF-0.0055555556900799274
aF-0.002222222276031971
aF-0.10000000149011612
aF0.38999998569488525
aF-9.720000267028809
aF0.019999999552965164
aF-0.05000000074505806
aF0.07000000029802322
aF-0.11999999731779099
aF0.44999998807907104
aF-9.789999961853027
a.(lp0
F128.5625
aF-0.6875
aF-177.3125
aI3
aI0
aI0
aI42
aF-0.75
aF-14.6875
aF32.5625
aF-0.0011111111380159855
aF-0.006666666828095913
aF-0.0033333334140479565
aF-0.10999999940395355
aF0.36000001430511475
aF-9.6899995803833
aF0.0
aF-0.07999999821186066
aF0.09000000357627869
aF-0.11999999731779099
aF0.44999998807907104
aF-9.789999961853027
a.(lp0
F128.5625
aF-0.6875
aF-177.3125
aI3
aI0
aI0
aI42
aF-0.75
aF-14.6875
aF32.5625
aF0.002222222276031971
aF-0.007777777966111898
aF-0.002222222276031971
aF-0.17000000178813934
aF0.3400000035762787
aF-9.65999984741211
aF-0.03999999910593033
aF-0.10000000149011612
aF0.12999999523162842
aF-0.11999999731779099
aF0.44999998807907104
aF-9.789999961853027
a.(lp0
F128.5625
aF-0.6875
aF-177.3125
aI3
aI0
aI0
aI42
aF-1.5
aF-14.6875
aF32.375
aF0.002222222276031971
aF0.0
aF-0.0033333334140479565
aF-0.1599999964237213
aF0.3400000035762787
aF-9.699999809265137
aF-0.009999999776482582
aF-0.11999999731779099
aF0.10000000149011612
aF-0.11999999731779099
aF0.44999998807907104
aF-9.789999961853027
a.(lp0
F128.5625
aF-0.6875
aF-177.3125
aI3
aI0
aI0
aI42
aF-1.0625
aF-15.0625
aF31.25
aF-0.0011111111380159855
aF0.0
aF0.002222222276031971
aF-0.12999999523162842
aF0.30000001192092896
aF-9.739999771118164
aF-0.019999999552965164
aF-0.10000000149011612
aF0.15000000596046448
aF-0.11999999731779099
aF0.44999998807907104
aF-9.789999961853027
a.(lp0
F128.5625
aF-0.6875
aF-177.3125
aI3
aI0
aI0
aI42
aF-0.75
aF-14.25
aF31.6875
aF-0.0055555556900799274
aF-0.004444444552063942
aF0.0011111111380159855
aF-0.15000000596046448
aF0.3700000047683716
aF-9.630000114440918
aF-0.019999999552965164
aF-0.07000000029802322
aF0.1599999964237213
aF-0.11999999731779099
aF0.44999998807907104
aF-9.789999961853027
a.(lp0
F128.5625
aF-0.6875
aF-177.3125
aI3
aI0
aI0
aI42
aF-1.0625
aF-14.6875
aF32.0625
aF-0.0011111111380159855
aF-0.002222222276031971
aF0.002222222276031971
aF-0.10999999940395355
aF0.4000000059604645
aF-9.630000114440918
aF0.009999999776482582
aF-0.03999999910593033
aF0.15000000596046448
aF-0.11999999731779099
aF0.44999998807907104
aF-9.789999961853027
a.(lp0
F128.5625
aF-0.6875
aF-177.3125
aI3
aI0
aI0
aI42
aF-1.5
aF-14.0
aF32.5625
aF-0.006666666828095913
aF0.012222222052514553
aF-0.004444444552063942
aF-0.15000000596046448
aF0.30000001192092896
aF-9.539999961853027
aF-0.029999999329447746
aF-0.14000000059604645
aF0.23999999463558197
aF-0.11999999731779099
aF0.4399999976158142
aF-9.789999961853027
a.(lp0
F128.5625
aF-0.75
aF-177.375
aI3
aI0
aI0
aI42
aF-2.25
aF-14.25
aF32.0625
aF0.014444444328546524
aF0.021111110225319862
aF0.0
aF-0.07000000029802322
aF0.5099999904632568
aF-9.729999542236328
aF0.03999999910593033
aF0.07000000029802322
aF0.05999999865889549
aF-0.11999999731779099
aF0.4399999976158142
aF-9.789999961853027
a.(lp0
F128.5625
aF-0.6875
aF-177.375
aI3
aI0
aI0
aI42
aF-0.75
aF-15.0625
aF31.75
aF-0.01666666753590107
aF-0.02222222276031971
aF0.002222222276031971
aF-0.2199999988079071
aF0.2199999988079071
aF-9.649999618530273
aF-0.09000000357627869
aF-0.2199999988079071
aF0.14000000059604645
aF-0.11999999731779099
aF0.4399999976158142
aF-9.789999961853027
a.